target datalayout = "e-m:e-p270:32:32-p271:32:32-p272:64:64-i64:64-i128:128-f80:128-n8:16:32:64-S128"
target triple = "x86_64-pc-linux-gnu"

%struct.comp_prog = type { i8, ptr, ptr, i64, ptr, ptr, ptr }
%struct.comp_block = type { ptr, i8, i64, i64, ptr, ptr }

; Function Attrs: nounwind uwtable
define void @freeCompileProg(ptr noundef %0) #0 {
  %2 = alloca ptr, align 8
  %3 = alloca ptr, align 8
  %4 = alloca i32, align 4
  %5 = alloca i64, align 8
  store ptr %0, ptr %2, align 8, !tbaa !3
  call void @llvm.lifetime.start.p0(i64 8, ptr %3) #16
  %6 = load ptr, ptr %2, align 8, !tbaa !3
  %7 = icmp ne ptr %6, null
  br i1 %7, label %9, label %8

8:                                                ; preds = %1
  store i32 1, ptr %4, align 4
  br label %40

9:                                                ; preds = %1
  %10 = load ptr, ptr %2, align 8, !tbaa !3
  %11 = getelementptr inbounds nuw %struct.comp_prog, ptr %10, i32 0, i32 1
  %12 = load ptr, ptr %11, align 8, !tbaa !22
  call void @exclose(ptr noundef %12)
  call void @llvm.lifetime.start.p0(i64 8, ptr %5) #16
  store i64 0, ptr %5, align 8, !tbaa !34
  br label %13

13:                                               ; preds = %32, %9
  %14 = load i64, ptr %5, align 8, !tbaa !34
  %15 = load ptr, ptr %2, align 8, !tbaa !3
  %16 = getelementptr inbounds nuw %struct.comp_prog, ptr %15, i32 0, i32 3
  %17 = load i64, ptr %16, align 8, !tbaa !37
  %18 = icmp ult i64 %14, %17
  br i1 %18, label %20, label %19

19:                                               ; preds = %13
  store i32 2, ptr %4, align 4
  call void @llvm.lifetime.end.p0(i64 8, ptr %5) #16
  br label %35

20:                                               ; preds = %13
  %21 = load ptr, ptr %2, align 8, !tbaa !3
  %22 = getelementptr inbounds nuw %struct.comp_prog, ptr %21, i32 0, i32 4
  %23 = load ptr, ptr %22, align 8, !tbaa !33
  %24 = load i64, ptr %5, align 8, !tbaa !34
  %25 = getelementptr inbounds nuw %struct.comp_block, ptr %23, i64 %24
  store ptr %25, ptr %3, align 8, !tbaa !3
  %26 = load ptr, ptr %3, align 8, !tbaa !3
  %27 = getelementptr inbounds nuw %struct.comp_block, ptr %26, i32 0, i32 4
  %28 = load ptr, ptr %27, align 8, !tbaa !87
  call void @free(ptr noundef %28) #16
  %29 = load ptr, ptr %3, align 8, !tbaa !3
  %30 = getelementptr inbounds nuw %struct.comp_block, ptr %29, i32 0, i32 5
  %31 = load ptr, ptr %30, align 8, !tbaa !90
  call void @free(ptr noundef %31) #16
  br label %32

32:                                               ; preds = %20
  %33 = load i64, ptr %5, align 8, !tbaa !34
  %34 = add i64 %33, 1
  store i64 %34, ptr %5, align 8, !tbaa !34
  br label %13, !llvm.loop !91

35:                                               ; preds = %19
  %36 = load ptr, ptr %2, align 8, !tbaa !3
  %37 = getelementptr inbounds nuw %struct.comp_prog, ptr %36, i32 0, i32 4
  %38 = load ptr, ptr %37, align 8, !tbaa !33
  call void @free(ptr noundef %38) #16
  %39 = load ptr, ptr %2, align 8, !tbaa !3
  call void @free(ptr noundef %39) #16
  store i32 0, ptr %4, align 4
  br label %40

40:                                               ; preds = %35, %8
  call void @llvm.lifetime.end.p0(i64 8, ptr %3) #16
  %41 = load i32, ptr %4, align 4
  switch i32 %41, label %43 [
    i32 0, label %42
    i32 1, label %42
  ]

42:                                               ; preds = %40, %40
  ret void

43:                                               ; preds = %40
  unreachable
}