; Function Attrs: nounwind uwtable
define void @freeCompileProg(ptr noundef captures(address_is_null) %0) local_unnamed_addr #0 {
  %.not = icmp eq ptr %0, null
  br i1 %.not, label %20, label %2

2:                                                ; preds = %1
  %3 = getelementptr inbounds nuw i8, ptr %0, i64 8
  %4 = load ptr, ptr %3, align 8, !tbaa !38
  tail call void @exclose(ptr noundef %4) #25
  %5 = getelementptr inbounds nuw i8, ptr %0, i64 24
  %6 = load i64, ptr %5, align 8, !tbaa !75
  %.not12 = icmp eq i64 %6, 0
  br i1 %.not12, label %._crit_edge, label %.lr.ph

.lr.ph:                                           ; preds = %2
  %7 = getelementptr inbounds nuw i8, ptr %0, i64 32
  br label %10

._crit_edge:                                      ; preds = %10, %2
  %8 = getelementptr inbounds nuw i8, ptr %0, i64 32
  %9 = load ptr, ptr %8, align 8, !tbaa !52
  tail call void @free(ptr noundef %9) #25
  tail call void @free(ptr noundef nonnull %0) #25
  br label %20

10:                                               ; preds = %.lr.ph, %10
  %.011 = phi i64 [ 0, %.lr.ph ], [ %17, %10 ]
  %11 = load ptr, ptr %7, align 8, !tbaa !52
  %12 = getelementptr inbounds nuw %struct.comp_block, ptr %11, i64 %.011
  %13 = getelementptr inbounds nuw i8, ptr %12, i64 32
  %14 = load ptr, ptr %13, align 8, !tbaa !69
  tail call void @free(ptr noundef %14) #25
  %15 = getelementptr inbounds nuw i8, ptr %12, i64 40
  %16 = load ptr, ptr %15, align 8, !tbaa !72
  tail call void @free(ptr noundef %16) #25
  %17 = add nuw i64 %.011, 1
  %18 = load i64, ptr %5, align 8, !tbaa !75
  %19 = icmp ult i64 %17, %18
  br i1 %19, label %10, label %._crit_edge, !llvm.loop !85

20:                                               ; preds = %1, %._crit_edge
  ret void
}